target datalayout = "e-m:e-p270:32:32-p271:32:32-p272:64:64-i64:64-i128:128-f80:128-n8:16:32:64-S128"
target triple = "x86_64-pc-linux-gnu"

; Function Attrs: mustprogress nounwind uwtable
define hidden noundef i32 @_ZN6google8protobuf25CalculateBase64EscapedLenEib(i32 noundef %0, i1 noundef zeroext %1) #6 {
  %3 = alloca i32, align 4
  %4 = alloca i8, align 1
  %5 = alloca i32, align 4
  store i32 %0, ptr %3, align 4, !tbaa !15
  %6 = zext i1 %1 to i8
  store i8 %6, ptr %4, align 1, !tbaa !22
  call void @llvm.lifetime.start.p0(i64 4, ptr %5) #3
  %7 = load i32, ptr %3, align 4, !tbaa !15
  %8 = sdiv i32 %7, 3
  %9 = mul nsw i32 %8, 4
  store i32 %9, ptr %5, align 4, !tbaa !15
  %10 = load i32, ptr %3, align 4, !tbaa !15
  %11 = srem i32 %10, 3
  %12 = icmp eq i32 %11, 0
  br i1 %12, label %13, label %14

13:                                               ; preds = %2
  br label %37

14:                                               ; preds = %2
  %15 = load i32, ptr %3, align 4, !tbaa !15
  %16 = srem i32 %15, 3
  %17 = icmp eq i32 %16, 1
  br i1 %17, label %18, label %27

18:                                               ; preds = %14
  %19 = load i32, ptr %5, align 4, !tbaa !15
  %20 = add nsw i32 %19, 2
  store i32 %20, ptr %5, align 4, !tbaa !15
  %21 = load i8, ptr %4, align 1, !tbaa !22, !range !24, !noundef !25
  %22 = trunc i8 %21 to i1
  br i1 %22, label %23, label %26

23:                                               ; preds = %18
  %24 = load i32, ptr %5, align 4, !tbaa !15
  %25 = add nsw i32 %24, 2
  store i32 %25, ptr %5, align 4, !tbaa !15
  br label %26

26:                                               ; preds = %23, %18
  br label %36

27:                                               ; preds = %14
  %28 = load i32, ptr %5, align 4, !tbaa !15
  %29 = add nsw i32 %28, 3
  store i32 %29, ptr %5, align 4, !tbaa !15
  %30 = load i8, ptr %4, align 1, !tbaa !22, !range !24, !noundef !25
  %31 = trunc i8 %30 to i1
  br i1 %31, label %32, label %35

32:                                               ; preds = %27
  %33 = load i32, ptr %5, align 4, !tbaa !15
  %34 = add nsw i32 %33, 1
  store i32 %34, ptr %5, align 4, !tbaa !15
  br label %35

35:                                               ; preds = %32, %27
  br label %36

36:                                               ; preds = %35, %26
  br label %37

37:                                               ; preds = %36, %13
  %38 = load i32, ptr %5, align 4, !tbaa !15
  call void @llvm.lifetime.end.p0(i64 4, ptr %5) #3
  ret i32 %38
}

; Function Attrs: mustprogress nounwind uwtable
define hidden noundef i32 @_ZN6google8protobuf25CalculateBase64EscapedLenEi(i32 noundef %0) #6 {
  %2 = alloca i32, align 4
  store i32 %0, ptr %2, align 4, !tbaa !15
  %3 = load i32, ptr %2, align 4, !tbaa !15
  %4 = call noundef i32 @_ZN6google8protobuf25CalculateBase64EscapedLenEib(i32 noundef %3, i1 noundef zeroext true)
  ret i32 %4
}