; Function Attrs: mustprogress nofree norecurse nosync nounwind willreturn memory(none) uwtable
define hidden noundef i32 @_ZN6google8protobuf25CalculateBase64EscapedLenEi(i32 noundef %0) local_unnamed_addr #21 {
  %2 = sdiv i32 %0, 3
  %3 = shl nsw i32 %2, 2
  %4 = srem i32 %0, 3
  switch i32 %4, label %7 [
    i32 0, label %_ZN6google8protobuf25CalculateBase64EscapedLenEib.exit
    i32 1, label %5
  ]

5:                                                ; preds = %1
  %6 = add nsw i32 %3, 4
  br label %_ZN6google8protobuf25CalculateBase64EscapedLenEib.exit

7:                                                ; preds = %1
  %8 = add nsw i32 %3, 4
  br label %_ZN6google8protobuf25CalculateBase64EscapedLenEib.exit

_ZN6google8protobuf25CalculateBase64EscapedLenEib.exit: ; preds = %1, %5, %7
  %.0.i = phi i32 [ %3, %1 ], [ %6, %5 ], [ %8, %7 ]
  ret i32 %.0.i
}